target datalayout = "e-m:e-p270:32:32-p271:32:32-p272:64:64-i64:64-i128:128-f80:128-n8:16:32:64-S128"
target triple = "x86_64-pc-linux-gnu"

%"class.(anonymous namespace)::Type.base" = type <{ ptr, i32 }>
%"class.(anonymous namespace)::CRegularNamedType.base" = type { %"class.(anonymous namespace)::Type.base" }
%"class.(anonymous namespace)::MultiVectorType" = type <{ %"class.(anonymous namespace)::CRegularNamedType.base", [4 x i8], ptr, i32, [4 x i8] }>

; Function Attrs: mustprogress nounwind uwtable
define internal noundef i32 @_ZNK12_GLOBAL__N_115MultiVectorType10sizeInBitsEv(ptr noundef nonnull align 8 dereferenceable(28) %0) unnamed_addr #0 align 2 {
  %2 = alloca ptr, align 8
  store ptr %0, ptr %2, align 8
  %3 = load ptr, ptr %2, align 8
  %4 = getelementptr inbounds nuw %"class.(anonymous namespace)::MultiVectorType", ptr %3, i32 0, i32 3
  %5 = load i32, ptr %4, align 8
  %6 = getelementptr inbounds nuw %"class.(anonymous namespace)::MultiVectorType", ptr %3, i32 0, i32 2
  %7 = load ptr, ptr %6, align 8
  %8 = load ptr, ptr %7, align 8
  %9 = getelementptr inbounds ptr, ptr %8, i64 4
  %10 = load ptr, ptr %9, align 8
  %11 = call noundef i32 %10(ptr noundef nonnull align 8 dereferenceable(28) %7)
  %12 = mul i32 %5, %11
  ret i32 %12
}